; Function Attrs: nounwind uwtable
define internal ptr @unicode_rstrip(ptr noundef %0, ptr noundef readonly captures(none) %1, i64 noundef %2) #0 {
  %or.cond = icmp ult i64 %2, 2
  br i1 %or.cond, label %6, label %4

4:                                                ; preds = %3
  %5 = tail call i32 @_PyArg_CheckPositional(ptr noundef nonnull @.str.244, i64 noundef %2, i64 noundef 0, i64 noundef 1) #41
  %.not = icmp eq i32 %5, 0
  br i1 %.not, label %12, label %6

6:                                                ; preds = %3, %4
  %7 = icmp slt i64 %2, 1
  br i1 %7, label %10, label %8

8:                                                ; preds = %6
  %9 = load ptr, ptr %1, align 8, !tbaa !183
  br label %10

10:                                               ; preds = %6, %8
  %.0 = phi ptr [ @_Py_NoneStruct, %6 ], [ %9, %8 ]
  %11 = tail call fastcc ptr @do_argstrip(ptr noundef %0, i32 noundef 1, ptr noundef %.0)
  br label %12

12:                                               ; preds = %4, %10
  %.08 = phi ptr [ %11, %10 ], [ null, %4 ]
  ret ptr %.08
}